; Function Attrs: nounwind uwtable
define dso_local noundef zeroext i1 @pgstat_wal_flush_cb(i1 noundef zeroext %0) local_unnamed_addr #0 {
  %2 = alloca %struct.WalUsage, align 8
  %3 = load ptr, ptr @pgStatLocal, align 8
  %4 = getelementptr inbounds nuw i8, ptr %3, i64 50384
  call void @llvm.lifetime.start.p0(i64 32, ptr nonnull %2) #7
  call void @llvm.memset.p0.i64(ptr noundef nonnull align 8 dereferenceable(32) %2, i8 0, i64 32, i1 false)
  %5 = load i64, ptr @pgWalUsage, align 8
  %6 = load i64, ptr @prevWalUsage, align 8
  %7 = icmp ne i64 %5, %6
  %8 = load i64, ptr @PendingWalStats, align 8
  %9 = icmp ne i64 %8, 0
  %or.cond.i = select i1 %7, i1 true, i1 %9
  %10 = load i64, ptr getelementptr inbounds nuw (i8, ptr @PendingWalStats, i64 8), align 8
  %11 = icmp ne i64 %10, 0
  %or.cond = select i1 %or.cond.i, i1 true, i1 %11
  br i1 %or.cond, label %pgstat_wal_have_pending_cb.exit.thread, label %.loopexit

pgstat_wal_have_pending_cb.exit.thread:           ; preds = %1
  call void @WalUsageAccumDiff(ptr noundef nonnull %2, ptr noundef nonnull @pgWalUsage, ptr noundef nonnull @prevWalUsage) #7
  br i1 %0, label %14, label %12

12:                                               ; preds = %pgstat_wal_have_pending_cb.exit.thread
  %13 = call zeroext i1 @LWLockAcquire(ptr noundef nonnull %4, i32 noundef 0) #7
  br label %.loopexit.loopexit

14:                                               ; preds = %pgstat_wal_have_pending_cb.exit.thread
  %15 = call zeroext i1 @LWLockConditionalAcquire(ptr noundef nonnull %4, i32 noundef 0) #7
  br i1 %15, label %.loopexit.loopexit, label %.loopexit

.loopexit.loopexit:                               ; preds = %14, %12
  %16 = load i64, ptr %2, align 8
  %17 = getelementptr inbounds nuw i8, ptr %3, i64 50400
  %18 = load i64, ptr %17, align 8
  %19 = add i64 %18, %16
  store i64 %19, ptr %17, align 8
  %20 = getelementptr inbounds nuw i8, ptr %2, i64 8
  %21 = load i64, ptr %20, align 8
  %22 = getelementptr inbounds nuw i8, ptr %3, i64 50408
  %23 = load i64, ptr %22, align 8
  %24 = add i64 %23, %21
  store i64 %24, ptr %22, align 8
  %25 = getelementptr inbounds nuw i8, ptr %2, i64 16
  %26 = load i64, ptr %25, align 8
  %27 = getelementptr inbounds nuw i8, ptr %3, i64 50416
  %28 = load i64, ptr %27, align 8
  %29 = add i64 %28, %26
  store i64 %29, ptr %27, align 8
  %30 = getelementptr inbounds nuw i8, ptr %2, i64 24
  %31 = load i64, ptr %30, align 8
  %32 = getelementptr inbounds nuw i8, ptr %3, i64 50424
  %33 = load i64, ptr %32, align 8
  %34 = add i64 %33, %31
  store i64 %34, ptr %32, align 8
  %35 = load i64, ptr @PendingWalStats, align 8
  %36 = getelementptr inbounds nuw i8, ptr %3, i64 50432
  %37 = load i64, ptr %36, align 8
  %38 = add i64 %37, %35
  store i64 %38, ptr %36, align 8
  %39 = load i64, ptr getelementptr inbounds nuw (i8, ptr @PendingWalStats, i64 8), align 8
  %40 = getelementptr inbounds nuw i8, ptr %3, i64 50440
  %41 = load i64, ptr %40, align 8
  %42 = add i64 %41, %39
  store i64 %42, ptr %40, align 8
  %43 = load i64, ptr getelementptr inbounds nuw (i8, ptr @PendingWalStats, i64 16), align 8
  %44 = sdiv i64 %43, 1000
  %45 = getelementptr inbounds nuw i8, ptr %3, i64 50448
  %46 = load i64, ptr %45, align 8
  %47 = add i64 %46, %44
  store i64 %47, ptr %45, align 8
  %48 = load i64, ptr getelementptr inbounds nuw (i8, ptr @PendingWalStats, i64 24), align 8
  %49 = sdiv i64 %48, 1000
  %50 = getelementptr inbounds nuw i8, ptr %3, i64 50456
  %51 = load i64, ptr %50, align 8
  %52 = add i64 %51, %49
  store i64 %52, ptr %50, align 8
  call void @LWLockRelease(ptr noundef nonnull %4) #7
  call void @llvm.memcpy.p0.p0.i64(ptr noundef nonnull align 8 dereferenceable(32) @prevWalUsage, ptr noundef nonnull align 8 dereferenceable(32) @pgWalUsage, i64 32, i1 false)
  call void @llvm.memset.p0.i64(ptr noundef nonnull align 8 dereferenceable(32) @PendingWalStats, i8 0, i64 32, i1 false)
  br label %.loopexit

.loopexit:                                        ; preds = %.loopexit.loopexit, %1, %14
  %.0 = phi i1 [ true, %14 ], [ false, %1 ], [ false, %.loopexit.loopexit ]
  call void @llvm.lifetime.end.p0(i64 32, ptr nonnull %2) #7
  ret i1 %.0
}